target datalayout = "e-m:e-p270:32:32-p271:32:32-p272:64:64-i64:64-i128:128-f80:128-n8:16:32:64-S128"
target triple = "x86_64-pc-linux-gnu"

%struct.stmm_table = type { ptr, ptr, i32, i32, i32, i32, double, ptr, ptr }
%struct.stmm_table_entry = type { ptr, ptr, ptr }

; Function Attrs: nounwind uwtable
define ptr @stmm_copy(ptr noundef %0) #0 {
  %2 = alloca ptr, align 8
  %3 = alloca ptr, align 8
  %4 = alloca ptr, align 8
  %5 = alloca ptr, align 8
  %6 = alloca ptr, align 8
  %7 = alloca i32, align 4
  %8 = alloca i32, align 4
  store ptr %0, ptr %3, align 8
  %9 = load ptr, ptr %3, align 8
  %10 = getelementptr inbounds %struct.stmm_table, ptr %9, i32 0, i32 2
  %11 = load i32, ptr %10, align 8
  store i32 %11, ptr %8, align 4
  %12 = call noalias ptr @malloc(i64 noundef 56) #5
  store ptr %12, ptr %4, align 8
  %13 = load ptr, ptr %4, align 8
  %14 = icmp eq ptr %13, null
  br i1 %14, label %15, label %16

15:                                               ; preds = %1
  store ptr null, ptr %2, align 8
  br label %118

16:                                               ; preds = %1
  %17 = load ptr, ptr %4, align 8
  %18 = load ptr, ptr %3, align 8
  call void @llvm.memcpy.p0.p0.i64(ptr align 8 %17, ptr align 8 %18, i64 56, i1 false)
  %19 = load i32, ptr %8, align 4
  %20 = sext i32 %19 to i64
  %21 = mul i64 8, %20
  %22 = call noalias ptr @malloc(i64 noundef %21) #5
  %23 = load ptr, ptr %4, align 8
  %24 = getelementptr inbounds %struct.stmm_table, ptr %23, i32 0, i32 7
  store ptr %22, ptr %24, align 8
  %25 = load ptr, ptr %4, align 8
  %26 = getelementptr inbounds %struct.stmm_table, ptr %25, i32 0, i32 7
  %27 = load ptr, ptr %26, align 8
  %28 = icmp eq ptr %27, null
  br i1 %28, label %29, label %36

29:                                               ; preds = %16
  %30 = load ptr, ptr %4, align 8
  %31 = icmp ne ptr %30, null
  br i1 %31, label %32, label %34

32:                                               ; preds = %29
  %33 = load ptr, ptr %4, align 8
  call void @free(ptr noundef %33) #6
  store ptr null, ptr %4, align 8
  br label %35

34:                                               ; preds = %29
  br label %35

35:                                               ; preds = %34, %32
  store ptr null, ptr %2, align 8
  br label %118

36:                                               ; preds = %16
  %37 = call ptr @Extra_MmFixedStart(i32 noundef 24)
  %38 = load ptr, ptr %4, align 8
  %39 = getelementptr inbounds %struct.stmm_table, ptr %38, i32 0, i32 8
  store ptr %37, ptr %39, align 8
  store i32 0, ptr %7, align 4
  br label %40

40:                                               ; preds = %113, %36
  %41 = load i32, ptr %7, align 4
  %42 = load i32, ptr %8, align 4
  %43 = icmp slt i32 %41, %42
  br i1 %43, label %44, label %116

44:                                               ; preds = %40
  %45 = load ptr, ptr %4, align 8
  %46 = getelementptr inbounds %struct.stmm_table, ptr %45, i32 0, i32 7
  %47 = load ptr, ptr %46, align 8
  %48 = load i32, ptr %7, align 4
  %49 = sext i32 %48 to i64
  %50 = getelementptr inbounds ptr, ptr %47, i64 %49
  store ptr null, ptr %50, align 8
  %51 = load ptr, ptr %3, align 8
  %52 = getelementptr inbounds %struct.stmm_table, ptr %51, i32 0, i32 7
  %53 = load ptr, ptr %52, align 8
  %54 = load i32, ptr %7, align 4
  %55 = sext i32 %54 to i64
  %56 = getelementptr inbounds ptr, ptr %53, i64 %55
  %57 = load ptr, ptr %56, align 8
  store ptr %57, ptr %5, align 8
  br label %58

58:                                               ; preds = %90, %44
  %59 = load ptr, ptr %5, align 8
  %60 = icmp ne ptr %59, null
  br i1 %60, label %61, label %112

61:                                               ; preds = %58
  %62 = load ptr, ptr %4, align 8
  %63 = getelementptr inbounds %struct.stmm_table, ptr %62, i32 0, i32 8
  %64 = load ptr, ptr %63, align 8
  %65 = call ptr @Extra_MmFixedEntryFetch(ptr noundef %64)
  store ptr %65, ptr %6, align 8
  %66 = load ptr, ptr %6, align 8
  %67 = icmp eq ptr %66, null
  br i1 %67, label %68, label %90

68:                                               ; preds = %61
  %69 = load ptr, ptr %4, align 8
  %70 = getelementptr inbounds %struct.stmm_table, ptr %69, i32 0, i32 8
  %71 = load ptr, ptr %70, align 8
  call void @Extra_MmFixedStop(ptr noundef %71)
  %72 = load ptr, ptr %4, align 8
  %73 = getelementptr inbounds %struct.stmm_table, ptr %72, i32 0, i32 7
  %74 = load ptr, ptr %73, align 8
  %75 = icmp ne ptr %74, null
  br i1 %75, label %76, label %82

76:                                               ; preds = %68
  %77 = load ptr, ptr %4, align 8
  %78 = getelementptr inbounds %struct.stmm_table, ptr %77, i32 0, i32 7
  %79 = load ptr, ptr %78, align 8
  call void @free(ptr noundef %79) #6
  %80 = load ptr, ptr %4, align 8
  %81 = getelementptr inbounds %struct.stmm_table, ptr %80, i32 0, i32 7
  store ptr null, ptr %81, align 8
  br label %83

82:                                               ; preds = %68
  br label %83

83:                                               ; preds = %82, %76
  %84 = load ptr, ptr %4, align 8
  %85 = icmp ne ptr %84, null
  br i1 %85, label %86, label %88

86:                                               ; preds = %83
  %87 = load ptr, ptr %4, align 8
  call void @free(ptr noundef %87) #6
  store ptr null, ptr %4, align 8
  br label %89

88:                                               ; preds = %83
  br label %89

89:                                               ; preds = %88, %86
  store ptr null, ptr %2, align 8
  br label %118

90:                                               ; preds = %61
  %91 = load ptr, ptr %6, align 8
  %92 = load ptr, ptr %5, align 8
  call void @llvm.memcpy.p0.p0.i64(ptr align 8 %91, ptr align 8 %92, i64 24, i1 false)
  %93 = load ptr, ptr %4, align 8
  %94 = getelementptr inbounds %struct.stmm_table, ptr %93, i32 0, i32 7
  %95 = load ptr, ptr %94, align 8
  %96 = load i32, ptr %7, align 4
  %97 = sext i32 %96 to i64
  %98 = getelementptr inbounds ptr, ptr %95, i64 %97
  %99 = load ptr, ptr %98, align 8
  %100 = load ptr, ptr %6, align 8
  %101 = getelementptr inbounds %struct.stmm_table_entry, ptr %100, i32 0, i32 2
  store ptr %99, ptr %101, align 8
  %102 = load ptr, ptr %6, align 8
  %103 = load ptr, ptr %4, align 8
  %104 = getelementptr inbounds %struct.stmm_table, ptr %103, i32 0, i32 7
  %105 = load ptr, ptr %104, align 8
  %106 = load i32, ptr %7, align 4
  %107 = sext i32 %106 to i64
  %108 = getelementptr inbounds ptr, ptr %105, i64 %107
  store ptr %102, ptr %108, align 8
  %109 = load ptr, ptr %5, align 8
  %110 = getelementptr inbounds %struct.stmm_table_entry, ptr %109, i32 0, i32 2
  %111 = load ptr, ptr %110, align 8
  store ptr %111, ptr %5, align 8
  br label %58, !llvm.loop !15

112:                                              ; preds = %58
  br label %113

113:                                              ; preds = %112
  %114 = load i32, ptr %7, align 4
  %115 = add nsw i32 %114, 1
  store i32 %115, ptr %7, align 4
  br label %40, !llvm.loop !16

116:                                              ; preds = %40
  %117 = load ptr, ptr %4, align 8
  store ptr %117, ptr %2, align 8
  br label %118

118:                                              ; preds = %116, %89, %35, %15
  %119 = load ptr, ptr %2, align 8
  ret ptr %119
}