; Function Attrs: nounwind uwtable
define noalias noundef ptr @stmm_copy(ptr noundef readonly captures(none) %0) local_unnamed_addr #0 {
  %2 = getelementptr inbounds nuw i8, ptr %0, i64 16
  %3 = load i32, ptr %2, align 8
  %4 = tail call noalias dereferenceable_or_null(56) ptr @malloc(i64 noundef 56) #12
  %5 = icmp eq ptr %4, null
  br i1 %5, label %.loopexit, label %6

6:                                                ; preds = %1
  tail call void @llvm.memcpy.p0.p0.i64(ptr noundef nonnull align 8 dereferenceable(56) %4, ptr noundef nonnull align 8 dereferenceable(56) %0, i64 56, i1 false)
  %7 = sext i32 %3 to i64
  %8 = shl nsw i64 %7, 3
  %9 = tail call noalias ptr @malloc(i64 noundef %8) #12
  %10 = getelementptr inbounds nuw i8, ptr %4, i64 40
  store ptr %9, ptr %10, align 8
  %11 = icmp eq ptr %9, null
  br i1 %11, label %.loopexit.sink.split, label %12

12:                                               ; preds = %6
  %13 = tail call ptr @Extra_MmFixedStart(i32 noundef 24) #13
  %14 = getelementptr inbounds nuw i8, ptr %4, i64 48
  store ptr %13, ptr %14, align 8
  %15 = icmp sgt i32 %3, 0
  br i1 %15, label %.lr.ph47, label %.loopexit

.lr.ph47:                                         ; preds = %12
  %16 = getelementptr inbounds nuw i8, ptr %0, i64 40
  %wide.trip.count = zext nneg i32 %3 to i64
  br label %17

17:                                               ; preds = %.lr.ph47, %._crit_edge
  %indvars.iv = phi i64 [ 0, %.lr.ph47 ], [ %indvars.iv.next, %._crit_edge ]
  %18 = getelementptr inbounds nuw ptr, ptr %9, i64 %indvars.iv
  store ptr null, ptr %18, align 8
  %19 = load ptr, ptr %16, align 8
  %20 = getelementptr inbounds nuw ptr, ptr %19, i64 %indvars.iv
  %.03742 = load ptr, ptr %20, align 8
  %.not43 = icmp eq ptr %.03742, null
  br i1 %.not43, label %._crit_edge, label %.lr.ph

.lr.ph:                                           ; preds = %17, %24
  %.03744 = phi ptr [ %.037, %24 ], [ %.03742, %17 ]
  %21 = tail call ptr @Extra_MmFixedEntryFetch(ptr noundef %13) #13
  %22 = icmp eq ptr %21, null
  br i1 %22, label %23, label %24

23:                                               ; preds = %.lr.ph
  tail call void @Extra_MmFixedStop(ptr noundef %13) #13
  tail call void @free(ptr noundef nonnull %9) #13
  br label %.loopexit.sink.split

24:                                               ; preds = %.lr.ph
  tail call void @llvm.memcpy.p0.p0.i64(ptr noundef nonnull align 8 dereferenceable(24) %21, ptr noundef nonnull align 8 dereferenceable(24) %.03744, i64 24, i1 false)
  %25 = load ptr, ptr %18, align 8
  %26 = getelementptr inbounds nuw i8, ptr %21, i64 16
  store ptr %25, ptr %26, align 8
  store ptr %21, ptr %18, align 8
  %27 = getelementptr inbounds nuw i8, ptr %.03744, i64 16
  %.037 = load ptr, ptr %27, align 8
  %.not = icmp eq ptr %.037, null
  br i1 %.not, label %._crit_edge, label %.lr.ph, !llvm.loop !14

._crit_edge:                                      ; preds = %24, %17
  %indvars.iv.next = add nuw nsw i64 %indvars.iv, 1
  %exitcond.not = icmp eq i64 %indvars.iv.next, %wide.trip.count
  br i1 %exitcond.not, label %.loopexit, label %17, !llvm.loop !15

.loopexit.sink.split:                             ; preds = %6, %23
  tail call void @free(ptr noundef %4) #13
  br label %.loopexit

.loopexit:                                        ; preds = %._crit_edge, %.loopexit.sink.split, %12, %1
  %.0 = phi ptr [ null, %1 ], [ %4, %12 ], [ null, %.loopexit.sink.split ], [ %4, %._crit_edge ]
  ret ptr %.0
}